target datalayout = "e-m:e-p270:32:32-p271:32:32-p272:64:64-i64:64-i128:128-f80:128-n8:16:32:64-S128"
target triple = "x86_64-pc-linux-gnu"

%struct.ForEachState = type { ptr, i32 }
%struct.FunctionCallInfoBaseData = type { ptr, ptr, ptr, i32, i8, i16, [0 x %struct.NullableDatum] }
%struct.NullableDatum = type { i64, i8 }
%struct.List = type { i32, i32, i32, ptr, [0 x %union.ListCell] }
%union.ListCell = type { ptr }
%struct.WalSummaryFile = type { i64, i64, i32 }
%struct.ReturnSetInfo = type { i32, ptr, ptr, i32, i32, i32, ptr, ptr }

@InterruptPending = external global i32, align 4

; Function Attrs: inlinehint nounwind uwtable
define internal i64 @LSNGetDatum(i64 noundef %0) #5 {
  %2 = alloca i64, align 8
  store i64 %0, ptr %2, align 8
  %3 = load i64, ptr %2, align 8
  %4 = call i64 @Int64GetDatum(i64 noundef %3)
  ret i64 %4
}

; Function Attrs: inlinehint nounwind uwtable
define internal i64 @Int64GetDatum(i64 noundef %0) #5 {
  %2 = alloca i64, align 8
  store i64 %0, ptr %2, align 8
  %3 = load i64, ptr %2, align 8
  ret i64 %3
}

; Function Attrs: nounwind uwtable
define dso_local i64 @pg_available_wal_summaries(ptr noundef %0) #0 {
  %2 = alloca ptr, align 8
  %3 = alloca ptr, align 8
  %4 = alloca ptr, align 8
  %5 = alloca ptr, align 8
  %6 = alloca [3 x i64], align 16
  %7 = alloca [3 x i8], align 1
  %8 = alloca %struct.ForEachState, align 8
  %9 = alloca ptr, align 8
  %10 = alloca ptr, align 8
  store ptr %0, ptr %2, align 8
  call void @llvm.lifetime.start.p0(i64 8, ptr %3) #7
  call void @llvm.lifetime.start.p0(i64 8, ptr %4) #7
  call void @llvm.lifetime.start.p0(i64 8, ptr %5) #7
  call void @llvm.lifetime.start.p0(i64 24, ptr %6) #7
  call void @llvm.lifetime.start.p0(i64 3, ptr %7) #7
  %11 = load ptr, ptr %2, align 8
  call void @InitMaterializedSRF(ptr noundef %11, i32 noundef 0)
  %12 = load ptr, ptr %2, align 8
  %13 = getelementptr inbounds nuw %struct.FunctionCallInfoBaseData, ptr %12, i32 0, i32 2
  %14 = load ptr, ptr %13, align 8
  store ptr %14, ptr %3, align 8
  %15 = getelementptr inbounds [3 x i8], ptr %7, i64 0, i64 0
  call void @llvm.memset.p0.i64(ptr align 1 %15, i8 0, i64 3, i1 false)
  %16 = call ptr @GetWalSummaries(i32 noundef 0, i64 noundef 0, i64 noundef 0)
  store ptr %16, ptr %4, align 8
  call void @llvm.lifetime.start.p0(i64 16, ptr %8) #7
  %17 = getelementptr inbounds nuw %struct.ForEachState, ptr %8, i32 0, i32 0
  %18 = load ptr, ptr %4, align 8
  store ptr %18, ptr %17, align 8
  %19 = getelementptr inbounds nuw %struct.ForEachState, ptr %8, i32 0, i32 1
  store i32 0, ptr %19, align 8
  %20 = getelementptr i8, ptr %8, i64 12
  call void @llvm.memset.p0.i64(ptr align 4 %20, i8 0, i64 4, i1 false)
  br label %21

21:                                               ; preds = %87, %1
  %22 = getelementptr inbounds nuw %struct.ForEachState, ptr %8, i32 0, i32 0
  %23 = load ptr, ptr %22, align 8
  %24 = icmp ne ptr %23, null
  br i1 %24, label %25, label %42

25:                                               ; preds = %21
  %26 = getelementptr inbounds nuw %struct.ForEachState, ptr %8, i32 0, i32 1
  %27 = load i32, ptr %26, align 8
  %28 = getelementptr inbounds nuw %struct.ForEachState, ptr %8, i32 0, i32 0
  %29 = load ptr, ptr %28, align 8
  %30 = getelementptr inbounds nuw %struct.List, ptr %29, i32 0, i32 1
  %31 = load i32, ptr %30, align 4
  %32 = icmp slt i32 %27, %31
  br i1 %32, label %33, label %42

33:                                               ; preds = %25
  %34 = getelementptr inbounds nuw %struct.ForEachState, ptr %8, i32 0, i32 0
  %35 = load ptr, ptr %34, align 8
  %36 = getelementptr inbounds nuw %struct.List, ptr %35, i32 0, i32 3
  %37 = load ptr, ptr %36, align 8
  %38 = getelementptr inbounds nuw %struct.ForEachState, ptr %8, i32 0, i32 1
  %39 = load i32, ptr %38, align 8
  %40 = sext i32 %39 to i64
  %41 = getelementptr inbounds %union.ListCell, ptr %37, i64 %40
  store ptr %41, ptr %5, align 8
  br label %43

42:                                               ; preds = %25, %21
  store ptr null, ptr %5, align 8
  br label %43

43:                                               ; preds = %42, %33
  %44 = phi i32 [ 1, %33 ], [ 0, %42 ]
  %45 = icmp ne i32 %44, 0
  br i1 %45, label %47, label %46

46:                                               ; preds = %43
  call void @llvm.lifetime.end.p0(i64 16, ptr %8) #7
  br label %91

47:                                               ; preds = %43
  call void @llvm.lifetime.start.p0(i64 8, ptr %9) #7
  %48 = load ptr, ptr %5, align 8
  %49 = load ptr, ptr %48, align 8
  store ptr %49, ptr %9, align 8
  call void @llvm.lifetime.start.p0(i64 8, ptr %10) #7
  br label %50

50:                                               ; preds = %47
  %51 = load volatile i32, ptr @InterruptPending, align 4
  %52 = icmp ne i32 %51, 0
  %53 = zext i1 %52 to i32
  %54 = sext i32 %53 to i64
  %55 = call i64 @llvm.expect.i64(i64 %54, i64 0)
  %56 = icmp ne i64 %55, 0
  br i1 %56, label %57, label %58

57:                                               ; preds = %50
  call void @ProcessInterrupts()
  br label %58

58:                                               ; preds = %57, %50
  br label %59

59:                                               ; preds = %58
  br label %60

60:                                               ; preds = %59
  %61 = load ptr, ptr %9, align 8
  %62 = getelementptr inbounds nuw %struct.WalSummaryFile, ptr %61, i32 0, i32 2
  %63 = load i32, ptr %62, align 8
  %64 = zext i32 %63 to i64
  %65 = call i64 @Int64GetDatum(i64 noundef %64)
  %66 = getelementptr inbounds [3 x i64], ptr %6, i64 0, i64 0
  store i64 %65, ptr %66, align 16
  %67 = load ptr, ptr %9, align 8
  %68 = getelementptr inbounds nuw %struct.WalSummaryFile, ptr %67, i32 0, i32 0
  %69 = load i64, ptr %68, align 8
  %70 = call i64 @LSNGetDatum(i64 noundef %69)
  %71 = getelementptr inbounds [3 x i64], ptr %6, i64 0, i64 1
  store i64 %70, ptr %71, align 8
  %72 = load ptr, ptr %9, align 8
  %73 = getelementptr inbounds nuw %struct.WalSummaryFile, ptr %72, i32 0, i32 1
  %74 = load i64, ptr %73, align 8
  %75 = call i64 @LSNGetDatum(i64 noundef %74)
  %76 = getelementptr inbounds [3 x i64], ptr %6, i64 0, i64 2
  store i64 %75, ptr %76, align 16
  %77 = load ptr, ptr %3, align 8
  %78 = getelementptr inbounds nuw %struct.ReturnSetInfo, ptr %77, i32 0, i32 7
  %79 = load ptr, ptr %78, align 8
  %80 = getelementptr inbounds [3 x i64], ptr %6, i64 0, i64 0
  %81 = getelementptr inbounds [3 x i8], ptr %7, i64 0, i64 0
  %82 = call ptr @heap_form_tuple(ptr noundef %79, ptr noundef %80, ptr noundef %81)
  store ptr %82, ptr %10, align 8
  %83 = load ptr, ptr %3, align 8
  %84 = getelementptr inbounds nuw %struct.ReturnSetInfo, ptr %83, i32 0, i32 6
  %85 = load ptr, ptr %84, align 8
  %86 = load ptr, ptr %10, align 8
  call void @tuplestore_puttuple(ptr noundef %85, ptr noundef %86)
  call void @llvm.lifetime.end.p0(i64 8, ptr %10) #7
  call void @llvm.lifetime.end.p0(i64 8, ptr %9) #7
  br label %87

87:                                               ; preds = %60
  %88 = getelementptr inbounds nuw %struct.ForEachState, ptr %8, i32 0, i32 1
  %89 = load i32, ptr %88, align 8
  %90 = add i32 %89, 1
  store i32 %90, ptr %88, align 8
  br label %21, !llvm.loop !4

91:                                               ; preds = %46
  call void @llvm.lifetime.end.p0(i64 3, ptr %7) #7
  call void @llvm.lifetime.end.p0(i64 24, ptr %6) #7
  call void @llvm.lifetime.end.p0(i64 8, ptr %5) #7
  call void @llvm.lifetime.end.p0(i64 8, ptr %4) #7
  call void @llvm.lifetime.end.p0(i64 8, ptr %3) #7
  ret i64 0
}