; Function Attrs: nounwind uwtable
define dso_local noundef i64 @pg_available_wal_summaries(ptr noundef %0) local_unnamed_addr #0 {
  %2 = alloca [3 x i64], align 16
  %3 = alloca [3 x i8], align 1
  call void @llvm.lifetime.start.p0(i64 24, ptr nonnull %2) #6
  call void @llvm.lifetime.start.p0(i64 3, ptr nonnull %3) #6
  tail call void @InitMaterializedSRF(ptr noundef %0, i32 noundef 0) #6
  %4 = getelementptr inbounds nuw i8, ptr %0, i64 16
  %5 = load ptr, ptr %4, align 8
  call void @llvm.memset.p0.i64(ptr noundef nonnull align 1 dereferenceable(3) %3, i8 0, i64 3, i1 false)
  %6 = tail call ptr @GetWalSummaries(i32 noundef 0, i64 noundef 0, i64 noundef 0) #6
  %7 = getelementptr inbounds nuw i8, ptr %6, i64 4
  %.not = icmp eq ptr %6, null
  br i1 %.not, label %._crit_edge, label %.lr.ph

.lr.ph:                                           ; preds = %1
  %8 = getelementptr inbounds nuw i8, ptr %6, i64 16
  %9 = getelementptr inbounds nuw i8, ptr %2, i64 8
  %10 = getelementptr inbounds nuw i8, ptr %2, i64 16
  %11 = getelementptr inbounds nuw i8, ptr %5, i64 48
  %12 = getelementptr inbounds nuw i8, ptr %5, i64 40
  %13 = load i32, ptr %7, align 4
  %14 = icmp sgt i32 %13, 0
  br i1 %14, label %.lr.ph22, label %._crit_edge

._crit_edge:                                      ; preds = %20, %.lr.ph, %1
  call void @llvm.lifetime.end.p0(i64 3, ptr nonnull %3) #6
  call void @llvm.lifetime.end.p0(i64 24, ptr nonnull %2) #6
  ret i64 0

.lr.ph22:                                         ; preds = %.lr.ph, %20
  %indvars.iv = phi i64 [ %indvars.iv.next, %20 ], [ 0, %.lr.ph ]
  %15 = load ptr, ptr %8, align 8
  %16 = getelementptr inbounds nuw %union.ListCell, ptr %15, i64 %indvars.iv
  %17 = load ptr, ptr %16, align 8
  %18 = load volatile i32, ptr @InterruptPending, align 4
  %.not16 = icmp eq i32 %18, 0
  br i1 %.not16, label %20, label %19, !prof !4

19:                                               ; preds = %.lr.ph22
  call void @ProcessInterrupts() #6
  br label %20

20:                                               ; preds = %19, %.lr.ph22
  %21 = getelementptr inbounds nuw i8, ptr %17, i64 16
  %22 = load i32, ptr %21, align 8
  %23 = zext i32 %22 to i64
  store i64 %23, ptr %2, align 16
  %24 = load i64, ptr %17, align 8
  store i64 %24, ptr %9, align 8
  %25 = getelementptr inbounds nuw i8, ptr %17, i64 8
  %26 = load i64, ptr %25, align 8
  store i64 %26, ptr %10, align 16
  %27 = load ptr, ptr %11, align 8
  %28 = call ptr @heap_form_tuple(ptr noundef %27, ptr noundef nonnull %2, ptr noundef nonnull %3) #6
  %29 = load ptr, ptr %12, align 8
  call void @tuplestore_puttuple(ptr noundef %29, ptr noundef %28) #6
  %indvars.iv.next = add nuw nsw i64 %indvars.iv, 1
  %30 = load i32, ptr %7, align 4
  %31 = sext i32 %30 to i64
  %32 = icmp slt i64 %indvars.iv.next, %31
  br i1 %32, label %.lr.ph22, label %._crit_edge
}